; Function Attrs: nounwind uwtable
define ptr @l_Lean_logWarning___at_Lean_checkExponent___spec__1(ptr noundef %0, ptr noundef %1, ptr noundef %2, ptr noundef %3) local_unnamed_addr #0 {
  %5 = getelementptr inbounds nuw i8, ptr %1, i64 24
  %6 = load ptr, ptr %5, align 8, !tbaa !4
  %7 = ptrtoint ptr %6 to i64
  %8 = and i64 %7, 1
  %.not = icmp eq i64 %8, 0
  br i1 %.not, label %9, label %lean_inc.exit

9:                                                ; preds = %4
  %.val.i = load i32, ptr %6, align 4, !tbaa !8
  %10 = icmp sgt i32 %.val.i, 0
  br i1 %10, label %11, label %13, !prof !11

11:                                               ; preds = %9
  %12 = add nuw i32 %.val.i, 1
  store i32 %12, ptr %6, align 4, !tbaa !8
  br label %17

13:                                               ; preds = %9
  %.not.i18 = icmp eq i32 %.val.i, 0
  br i1 %.not.i18, label %17, label %14

14:                                               ; preds = %13
  tail call void @lean_inc_ref_cold(ptr noundef nonnull %6) #4
  br label %17

lean_inc.exit:                                    ; preds = %4
  %15 = load ptr, ptr @l_Lean_logWarning___at_Lean_checkExponent___spec__1___closed__1, align 8, !tbaa !4
  %16 = tail call zeroext i8 @l_Lean_Option_get___at___private_Lean_Util_Profile_0__Lean_get__profiler___spec__1(ptr noundef %6, ptr noundef %15) #4
  br label %lean_dec.exit

17:                                               ; preds = %14, %13, %11
  %18 = load ptr, ptr @l_Lean_logWarning___at_Lean_checkExponent___spec__1___closed__1, align 8, !tbaa !4
  %19 = tail call zeroext i8 @l_Lean_Option_get___at___private_Lean_Util_Profile_0__Lean_get__profiler___spec__1(ptr noundef nonnull %6, ptr noundef %18) #4
  %20 = load i32, ptr %6, align 4, !tbaa !8
  %21 = icmp sgt i32 %20, 1
  br i1 %21, label %22, label %24, !prof !11

22:                                               ; preds = %17
  %23 = add nsw i32 %20, -1
  store i32 %23, ptr %6, align 4, !tbaa !8
  br label %lean_dec.exit

24:                                               ; preds = %17
  %.not.i = icmp eq i32 %20, 0
  br i1 %.not.i, label %lean_dec.exit, label %25

25:                                               ; preds = %24
  tail call void @lean_dec_ref_cold(ptr noundef nonnull %6) #4
  br label %lean_dec.exit

lean_dec.exit:                                    ; preds = %25, %24, %22, %lean_inc.exit
  %26 = phi i8 [ %16, %lean_inc.exit ], [ %19, %22 ], [ %19, %24 ], [ %19, %25 ]
  %27 = icmp eq i8 %26, 0
  %. = select i1 %27, i8 1, i8 2
  %28 = tail call ptr @l_Lean_log___at_Lean_Core_wrapAsyncAsSnapshot___spec__13(ptr noundef %0, i8 noundef zeroext %., ptr noundef nonnull %1, ptr noundef %2, ptr noundef %3) #4
  ret ptr %28
}